target datalayout = "e-m:e-p270:32:32-p271:32:32-p272:64:64-i64:64-i128:128-f80:128-n8:16:32:64-S128"
target triple = "x86_64-pc-linux-gnu"

%struct.jv = type { i8, i8, i16, i32, %union.anon }
%union.anon = type { ptr }

; Function Attrs: nounwind uwtable
define internal i32 @string_cmp(ptr noundef %0, ptr noundef %1) #0 {
  %3 = alloca ptr, align 8
  %4 = alloca ptr, align 8
  %5 = alloca ptr, align 8
  %6 = alloca ptr, align 8
  %7 = alloca i32, align 4
  %8 = alloca %struct.jv, align 8
  %9 = alloca i32, align 4
  %10 = alloca %struct.jv, align 8
  %11 = alloca i32, align 4
  %12 = alloca i32, align 4
  store ptr %0, ptr %3, align 8, !tbaa !30
  store ptr %1, ptr %4, align 8, !tbaa !30
  call void @llvm.lifetime.start.p0(i64 8, ptr %5) #6
  %13 = load ptr, ptr %3, align 8, !tbaa !30
  store ptr %13, ptr %5, align 8, !tbaa !30
  call void @llvm.lifetime.start.p0(i64 8, ptr %6) #6
  %14 = load ptr, ptr %4, align 8, !tbaa !30
  store ptr %14, ptr %6, align 8, !tbaa !30
  call void @llvm.lifetime.start.p0(i64 4, ptr %7) #6
  %15 = load ptr, ptr %5, align 8, !tbaa !30
  %16 = getelementptr inbounds nuw { i64, ptr }, ptr %15, i32 0, i32 0
  %17 = load i64, ptr %16, align 8
  %18 = getelementptr inbounds nuw { i64, ptr }, ptr %15, i32 0, i32 1
  %19 = load ptr, ptr %18, align 8
  %20 = call { i64, ptr } @jv_copy(i64 %17, ptr %19)
  %21 = getelementptr inbounds nuw { i64, ptr }, ptr %8, i32 0, i32 0
  %22 = extractvalue { i64, ptr } %20, 0
  store i64 %22, ptr %21, align 8
  %23 = getelementptr inbounds nuw { i64, ptr }, ptr %8, i32 0, i32 1
  %24 = extractvalue { i64, ptr } %20, 1
  store ptr %24, ptr %23, align 8
  %25 = getelementptr inbounds nuw { i64, ptr }, ptr %8, i32 0, i32 0
  %26 = load i64, ptr %25, align 8
  %27 = getelementptr inbounds nuw { i64, ptr }, ptr %8, i32 0, i32 1
  %28 = load ptr, ptr %27, align 8
  %29 = call i32 @jv_string_length_bytes(i64 %26, ptr %28)
  store i32 %29, ptr %7, align 4, !tbaa !10
  call void @llvm.lifetime.start.p0(i64 4, ptr %9) #6
  %30 = load ptr, ptr %6, align 8, !tbaa !30
  %31 = getelementptr inbounds nuw { i64, ptr }, ptr %30, i32 0, i32 0
  %32 = load i64, ptr %31, align 8
  %33 = getelementptr inbounds nuw { i64, ptr }, ptr %30, i32 0, i32 1
  %34 = load ptr, ptr %33, align 8
  %35 = call { i64, ptr } @jv_copy(i64 %32, ptr %34)
  %36 = getelementptr inbounds nuw { i64, ptr }, ptr %10, i32 0, i32 0
  %37 = extractvalue { i64, ptr } %35, 0
  store i64 %37, ptr %36, align 8
  %38 = getelementptr inbounds nuw { i64, ptr }, ptr %10, i32 0, i32 1
  %39 = extractvalue { i64, ptr } %35, 1
  store ptr %39, ptr %38, align 8
  %40 = getelementptr inbounds nuw { i64, ptr }, ptr %10, i32 0, i32 0
  %41 = load i64, ptr %40, align 8
  %42 = getelementptr inbounds nuw { i64, ptr }, ptr %10, i32 0, i32 1
  %43 = load ptr, ptr %42, align 8
  %44 = call i32 @jv_string_length_bytes(i64 %41, ptr %43)
  store i32 %44, ptr %9, align 4, !tbaa !10
  call void @llvm.lifetime.start.p0(i64 4, ptr %11) #6
  %45 = load i32, ptr %7, align 4, !tbaa !10
  %46 = load i32, ptr %9, align 4, !tbaa !10
  %47 = icmp slt i32 %45, %46
  br i1 %47, label %48, label %50

48:                                               ; preds = %2
  %49 = load i32, ptr %7, align 4, !tbaa !10
  br label %52

50:                                               ; preds = %2
  %51 = load i32, ptr %9, align 4, !tbaa !10
  br label %52

52:                                               ; preds = %50, %48
  %53 = phi i32 [ %49, %48 ], [ %51, %50 ]
  store i32 %53, ptr %11, align 4, !tbaa !10
  call void @llvm.lifetime.start.p0(i64 4, ptr %12) #6
  %54 = load ptr, ptr %5, align 8, !tbaa !30
  %55 = getelementptr inbounds nuw { i64, ptr }, ptr %54, i32 0, i32 0
  %56 = load i64, ptr %55, align 8
  %57 = getelementptr inbounds nuw { i64, ptr }, ptr %54, i32 0, i32 1
  %58 = load ptr, ptr %57, align 8
  %59 = call ptr @jv_string_value(i64 %56, ptr %58)
  %60 = load ptr, ptr %6, align 8, !tbaa !30
  %61 = getelementptr inbounds nuw { i64, ptr }, ptr %60, i32 0, i32 0
  %62 = load i64, ptr %61, align 8
  %63 = getelementptr inbounds nuw { i64, ptr }, ptr %60, i32 0, i32 1
  %64 = load ptr, ptr %63, align 8
  %65 = call ptr @jv_string_value(i64 %62, ptr %64)
  %66 = load i32, ptr %11, align 4, !tbaa !10
  %67 = sext i32 %66 to i64
  %68 = call i32 @memcmp(ptr noundef %59, ptr noundef %65, i64 noundef %67) #7
  store i32 %68, ptr %12, align 4, !tbaa !10
  %69 = load i32, ptr %12, align 4, !tbaa !10
  %70 = icmp eq i32 %69, 0
  br i1 %70, label %71, label %75

71:                                               ; preds = %52
  %72 = load i32, ptr %7, align 4, !tbaa !10
  %73 = load i32, ptr %9, align 4, !tbaa !10
  %74 = sub nsw i32 %72, %73
  store i32 %74, ptr %12, align 4, !tbaa !10
  br label %75

75:                                               ; preds = %71, %52
  %76 = load i32, ptr %12, align 4, !tbaa !10
  call void @llvm.lifetime.end.p0(i64 4, ptr %12) #6
  call void @llvm.lifetime.end.p0(i64 4, ptr %11) #6
  call void @llvm.lifetime.end.p0(i64 4, ptr %9) #6
  call void @llvm.lifetime.end.p0(i64 4, ptr %7) #6
  call void @llvm.lifetime.end.p0(i64 8, ptr %6) #6
  call void @llvm.lifetime.end.p0(i64 8, ptr %5) #6
  ret i32 %76
}