; Function Attrs: nounwind uwtable
define internal i32 @string_cmp(ptr noundef readonly captures(none) %0, ptr noundef readonly captures(none) %1) #0 {
  %3 = load i64, ptr %0, align 8
  %4 = getelementptr inbounds nuw i8, ptr %0, i64 8
  %5 = load ptr, ptr %4, align 8
  %6 = tail call { i64, ptr } @jv_copy(i64 %3, ptr %5) #6
  %7 = extractvalue { i64, ptr } %6, 0
  %8 = extractvalue { i64, ptr } %6, 1
  %9 = tail call i32 @jv_string_length_bytes(i64 %7, ptr %8) #6
  %10 = load i64, ptr %1, align 8
  %11 = getelementptr inbounds nuw i8, ptr %1, i64 8
  %12 = load ptr, ptr %11, align 8
  %13 = tail call { i64, ptr } @jv_copy(i64 %10, ptr %12) #6
  %14 = extractvalue { i64, ptr } %13, 0
  %15 = extractvalue { i64, ptr } %13, 1
  %16 = tail call i32 @jv_string_length_bytes(i64 %14, ptr %15) #6
  %17 = tail call i32 @llvm.smin.i32(i32 %9, i32 %16)
  %18 = load i64, ptr %0, align 8
  %19 = load ptr, ptr %4, align 8
  %20 = tail call ptr @jv_string_value(i64 %18, ptr %19) #6
  %21 = load i64, ptr %1, align 8
  %22 = load ptr, ptr %11, align 8
  %23 = tail call ptr @jv_string_value(i64 %21, ptr %22) #6
  %24 = sext i32 %17 to i64
  %25 = tail call i32 @memcmp(ptr noundef %20, ptr noundef %23, i64 noundef %24) #7
  %26 = icmp eq i32 %25, 0
  %27 = sub nsw i32 %9, %16
  %spec.select = select i1 %26, i32 %27, i32 %25
  ret i32 %spec.select
}